target datalayout = "e-m:e-p270:32:32-p271:32:32-p272:64:64-i64:64-i128:128-f80:128-n8:16:32:64-S128"
target triple = "x86_64-pc-linux-gnu"

; Function Attrs: mustprogress nounwind uwtable
define hidden noundef zeroext i1 @_ZN26ShenandoahBarrierC2Support12is_dominatorEP4NodeS1_S1_S1_P14PhaseIdealLoop(ptr noundef %0, ptr noundef %1, ptr noundef %2, ptr noundef %3, ptr noundef %4) #1 align 2 {
  %6 = alloca i1, align 1
  %7 = alloca ptr, align 8
  %8 = alloca ptr, align 8
  %9 = alloca ptr, align 8
  %10 = alloca ptr, align 8
  %11 = alloca ptr, align 8
  store ptr %0, ptr %7, align 8
  store ptr %1, ptr %8, align 8
  store ptr %2, ptr %9, align 8
  store ptr %3, ptr %10, align 8
  store ptr %4, ptr %11, align 8
  %12 = load ptr, ptr %7, align 8
  %13 = load ptr, ptr %8, align 8
  %14 = icmp ne ptr %12, %13
  br i1 %14, label %15, label %23

15:                                               ; preds = %5
  %16 = load ptr, ptr %11, align 8
  %17 = load ptr, ptr %7, align 8
  %18 = load ptr, ptr %8, align 8
  %19 = load ptr, ptr %16, align 8
  %20 = getelementptr inbounds ptr, ptr %19, i64 1
  %21 = load ptr, ptr %20, align 8
  %22 = call noundef zeroext i1 %21(ptr noundef nonnull align 8 dereferenceable(237) %16, ptr noundef %17, ptr noundef %18)
  store i1 %22, ptr %6, align 1
  br label %29

23:                                               ; preds = %5
  %24 = load ptr, ptr %7, align 8
  %25 = load ptr, ptr %9, align 8
  %26 = load ptr, ptr %10, align 8
  %27 = load ptr, ptr %11, align 8
  %28 = call noundef zeroext i1 @_ZN26ShenandoahBarrierC2Support22is_dominator_same_ctrlEP4NodeS1_S1_P14PhaseIdealLoop(ptr noundef %24, ptr noundef %25, ptr noundef %26, ptr noundef %27)
  store i1 %28, ptr %6, align 1
  br label %29

29:                                               ; preds = %23, %15
  %30 = load i1, ptr %6, align 1
  ret i1 %30
}