; Function Attrs: mustprogress nounwind uwtable
define hidden noundef zeroext i1 @_ZN26ShenandoahBarrierC2Support12is_dominatorEP4NodeS1_S1_S1_P14PhaseIdealLoop(ptr noundef %0, ptr noundef %1, ptr noundef %2, ptr noundef %3, ptr noundef %4) local_unnamed_addr #0 align 2 {
  %.not = icmp eq ptr %0, %1
  br i1 %.not, label %11, label %6

6:                                                ; preds = %5
  %7 = load ptr, ptr %4, align 8
  %8 = getelementptr inbounds i8, ptr %7, i64 8
  %9 = load ptr, ptr %8, align 8
  %10 = tail call noundef zeroext i1 %9(ptr noundef nonnull align 8 dereferenceable(237) %4, ptr noundef %0, ptr noundef %1) #10
  br label %13

11:                                               ; preds = %5
  %12 = tail call noundef zeroext i1 @_ZN26ShenandoahBarrierC2Support22is_dominator_same_ctrlEP4NodeS1_S1_P14PhaseIdealLoop(ptr noundef %0, ptr noundef %2, ptr noundef %3, ptr noundef %4)
  br label %13

13:                                               ; preds = %11, %6
  %.0 = phi i1 [ %10, %6 ], [ %12, %11 ]
  ret i1 %.0
}